target datalayout = "e-m:e-p270:32:32-p271:32:32-p272:64:64-i64:64-i128:128-f80:128-n8:16:32:64-S128"
target triple = "x86_64-pc-linux-gnu"

; Function Attrs: inlinehint nounwind uwtable
define internal i32 @Extra_TruthWordNum(i32 noundef %0) #2 {
  %2 = alloca i32, align 4
  store i32 %0, ptr %2, align 4, !tbaa !3
  %3 = load i32, ptr %2, align 4, !tbaa !3
  %4 = icmp sle i32 %3, 5
  br i1 %4, label %5, label %6

5:                                                ; preds = %1
  br label %10

6:                                                ; preds = %1
  %7 = load i32, ptr %2, align 4, !tbaa !3
  %8 = sub nsw i32 %7, 5
  %9 = shl i32 1, %8
  br label %10

10:                                               ; preds = %6, %5
  %11 = phi i32 [ 1, %5 ], [ %9, %6 ]
  ret i32 %11
}

; Function Attrs: nounwind uwtable
define i32 @Extra_TruthVarInSupport(ptr noundef %0, i32 noundef %1, i32 noundef %2) #0 {
  %4 = alloca i32, align 4
  %5 = alloca ptr, align 8
  %6 = alloca i32, align 4
  %7 = alloca i32, align 4
  %8 = alloca i32, align 4
  %9 = alloca i32, align 4
  %10 = alloca i32, align 4
  %11 = alloca i32, align 4
  %12 = alloca i32, align 4
  store ptr %0, ptr %5, align 8, !tbaa !10
  store i32 %1, ptr %6, align 4, !tbaa !3
  store i32 %2, ptr %7, align 4, !tbaa !3
  call void @llvm.lifetime.start.p0(i64 4, ptr %8) #5
  %13 = load i32, ptr %6, align 4, !tbaa !3
  %14 = call i32 @Extra_TruthWordNum(i32 noundef %13)
  store i32 %14, ptr %8, align 4, !tbaa !3
  call void @llvm.lifetime.start.p0(i64 4, ptr %9) #5
  call void @llvm.lifetime.start.p0(i64 4, ptr %10) #5
  call void @llvm.lifetime.start.p0(i64 4, ptr %11) #5
  %15 = load i32, ptr %7, align 4, !tbaa !3
  switch i32 %15, label %146 [
    i32 0, label %16
    i32 1, label %42
    i32 2, label %68
    i32 3, label %94
    i32 4, label %120
  ]

16:                                               ; preds = %3
  store i32 0, ptr %9, align 4, !tbaa !3
  br label %17

17:                                               ; preds = %38, %16
  %18 = load i32, ptr %9, align 4, !tbaa !3
  %19 = load i32, ptr %8, align 4, !tbaa !3
  %20 = icmp slt i32 %18, %19
  br i1 %20, label %21, label %41

21:                                               ; preds = %17
  %22 = load ptr, ptr %5, align 8, !tbaa !10
  %23 = load i32, ptr %9, align 4, !tbaa !3
  %24 = sext i32 %23 to i64
  %25 = getelementptr inbounds i32, ptr %22, i64 %24
  %26 = load i32, ptr %25, align 4, !tbaa !3
  %27 = and i32 %26, 1431655765
  %28 = load ptr, ptr %5, align 8, !tbaa !10
  %29 = load i32, ptr %9, align 4, !tbaa !3
  %30 = sext i32 %29 to i64
  %31 = getelementptr inbounds i32, ptr %28, i64 %30
  %32 = load i32, ptr %31, align 4, !tbaa !3
  %33 = and i32 %32, -1431655766
  %34 = lshr i32 %33, 1
  %35 = icmp ne i32 %27, %34
  br i1 %35, label %36, label %37

36:                                               ; preds = %21
  store i32 1, ptr %4, align 4
  store i32 1, ptr %12, align 4
  br label %190

37:                                               ; preds = %21
  br label %38

38:                                               ; preds = %37
  %39 = load i32, ptr %9, align 4, !tbaa !3
  %40 = add nsw i32 %39, 1
  store i32 %40, ptr %9, align 4, !tbaa !3
  br label %17, !llvm.loop !38

41:                                               ; preds = %17
  store i32 0, ptr %4, align 4
  store i32 1, ptr %12, align 4
  br label %190

42:                                               ; preds = %3
  store i32 0, ptr %9, align 4, !tbaa !3
  br label %43

43:                                               ; preds = %64, %42
  %44 = load i32, ptr %9, align 4, !tbaa !3
  %45 = load i32, ptr %8, align 4, !tbaa !3
  %46 = icmp slt i32 %44, %45
  br i1 %46, label %47, label %67

47:                                               ; preds = %43
  %48 = load ptr, ptr %5, align 8, !tbaa !10
  %49 = load i32, ptr %9, align 4, !tbaa !3
  %50 = sext i32 %49 to i64
  %51 = getelementptr inbounds i32, ptr %48, i64 %50
  %52 = load i32, ptr %51, align 4, !tbaa !3
  %53 = and i32 %52, 858993459
  %54 = load ptr, ptr %5, align 8, !tbaa !10
  %55 = load i32, ptr %9, align 4, !tbaa !3
  %56 = sext i32 %55 to i64
  %57 = getelementptr inbounds i32, ptr %54, i64 %56
  %58 = load i32, ptr %57, align 4, !tbaa !3
  %59 = and i32 %58, -858993460
  %60 = lshr i32 %59, 2
  %61 = icmp ne i32 %53, %60
  br i1 %61, label %62, label %63

62:                                               ; preds = %47
  store i32 1, ptr %4, align 4
  store i32 1, ptr %12, align 4
  br label %190

63:                                               ; preds = %47
  br label %64

64:                                               ; preds = %63
  %65 = load i32, ptr %9, align 4, !tbaa !3
  %66 = add nsw i32 %65, 1
  store i32 %66, ptr %9, align 4, !tbaa !3
  br label %43, !llvm.loop !39

67:                                               ; preds = %43
  store i32 0, ptr %4, align 4
  store i32 1, ptr %12, align 4
  br label %190

68:                                               ; preds = %3
  store i32 0, ptr %9, align 4, !tbaa !3
  br label %69

69:                                               ; preds = %90, %68
  %70 = load i32, ptr %9, align 4, !tbaa !3
  %71 = load i32, ptr %8, align 4, !tbaa !3
  %72 = icmp slt i32 %70, %71
  br i1 %72, label %73, label %93

73:                                               ; preds = %69
  %74 = load ptr, ptr %5, align 8, !tbaa !10
  %75 = load i32, ptr %9, align 4, !tbaa !3
  %76 = sext i32 %75 to i64
  %77 = getelementptr inbounds i32, ptr %74, i64 %76
  %78 = load i32, ptr %77, align 4, !tbaa !3
  %79 = and i32 %78, 252645135
  %80 = load ptr, ptr %5, align 8, !tbaa !10
  %81 = load i32, ptr %9, align 4, !tbaa !3
  %82 = sext i32 %81 to i64
  %83 = getelementptr inbounds i32, ptr %80, i64 %82
  %84 = load i32, ptr %83, align 4, !tbaa !3
  %85 = and i32 %84, -252645136
  %86 = lshr i32 %85, 4
  %87 = icmp ne i32 %79, %86
  br i1 %87, label %88, label %89

88:                                               ; preds = %73
  store i32 1, ptr %4, align 4
  store i32 1, ptr %12, align 4
  br label %190

89:                                               ; preds = %73
  br label %90

90:                                               ; preds = %89
  %91 = load i32, ptr %9, align 4, !tbaa !3
  %92 = add nsw i32 %91, 1
  store i32 %92, ptr %9, align 4, !tbaa !3
  br label %69, !llvm.loop !40

93:                                               ; preds = %69
  store i32 0, ptr %4, align 4
  store i32 1, ptr %12, align 4
  br label %190

94:                                               ; preds = %3
  store i32 0, ptr %9, align 4, !tbaa !3
  br label %95

95:                                               ; preds = %116, %94
  %96 = load i32, ptr %9, align 4, !tbaa !3
  %97 = load i32, ptr %8, align 4, !tbaa !3
  %98 = icmp slt i32 %96, %97
  br i1 %98, label %99, label %119

99:                                               ; preds = %95
  %100 = load ptr, ptr %5, align 8, !tbaa !10
  %101 = load i32, ptr %9, align 4, !tbaa !3
  %102 = sext i32 %101 to i64
  %103 = getelementptr inbounds i32, ptr %100, i64 %102
  %104 = load i32, ptr %103, align 4, !tbaa !3
  %105 = and i32 %104, 16711935
  %106 = load ptr, ptr %5, align 8, !tbaa !10
  %107 = load i32, ptr %9, align 4, !tbaa !3
  %108 = sext i32 %107 to i64
  %109 = getelementptr inbounds i32, ptr %106, i64 %108
  %110 = load i32, ptr %109, align 4, !tbaa !3
  %111 = and i32 %110, -16711936
  %112 = lshr i32 %111, 8
  %113 = icmp ne i32 %105, %112
  br i1 %113, label %114, label %115

114:                                              ; preds = %99
  store i32 1, ptr %4, align 4
  store i32 1, ptr %12, align 4
  br label %190

115:                                              ; preds = %99
  br label %116

116:                                              ; preds = %115
  %117 = load i32, ptr %9, align 4, !tbaa !3
  %118 = add nsw i32 %117, 1
  store i32 %118, ptr %9, align 4, !tbaa !3
  br label %95, !llvm.loop !41

119:                                              ; preds = %95
  store i32 0, ptr %4, align 4
  store i32 1, ptr %12, align 4
  br label %190

120:                                              ; preds = %3
  store i32 0, ptr %9, align 4, !tbaa !3
  br label %121

121:                                              ; preds = %142, %120
  %122 = load i32, ptr %9, align 4, !tbaa !3
  %123 = load i32, ptr %8, align 4, !tbaa !3
  %124 = icmp slt i32 %122, %123
  br i1 %124, label %125, label %145

125:                                              ; preds = %121
  %126 = load ptr, ptr %5, align 8, !tbaa !10
  %127 = load i32, ptr %9, align 4, !tbaa !3
  %128 = sext i32 %127 to i64
  %129 = getelementptr inbounds i32, ptr %126, i64 %128
  %130 = load i32, ptr %129, align 4, !tbaa !3
  %131 = and i32 %130, 65535
  %132 = load ptr, ptr %5, align 8, !tbaa !10
  %133 = load i32, ptr %9, align 4, !tbaa !3
  %134 = sext i32 %133 to i64
  %135 = getelementptr inbounds i32, ptr %132, i64 %134
  %136 = load i32, ptr %135, align 4, !tbaa !3
  %137 = and i32 %136, -65536
  %138 = lshr i32 %137, 16
  %139 = icmp ne i32 %131, %138
  br i1 %139, label %140, label %141

140:                                              ; preds = %125
  store i32 1, ptr %4, align 4
  store i32 1, ptr %12, align 4
  br label %190

141:                                              ; preds = %125
  br label %142

142:                                              ; preds = %141
  %143 = load i32, ptr %9, align 4, !tbaa !3
  %144 = add nsw i32 %143, 1
  store i32 %144, ptr %9, align 4, !tbaa !3
  br label %121, !llvm.loop !42

145:                                              ; preds = %121
  store i32 0, ptr %4, align 4
  store i32 1, ptr %12, align 4
  br label %190

146:                                              ; preds = %3
  %147 = load i32, ptr %7, align 4, !tbaa !3
  %148 = sub nsw i32 %147, 5
  %149 = shl i32 1, %148
  store i32 %149, ptr %11, align 4, !tbaa !3
  store i32 0, ptr %10, align 4, !tbaa !3
  br label %150

150:                                              ; preds = %184, %146
  %151 = load i32, ptr %10, align 4, !tbaa !3
  %152 = load i32, ptr %8, align 4, !tbaa !3
  %153 = icmp slt i32 %151, %152
  br i1 %153, label %154, label %189

154:                                              ; preds = %150
  store i32 0, ptr %9, align 4, !tbaa !3
  br label %155

155:                                              ; preds = %175, %154
  %156 = load i32, ptr %9, align 4, !tbaa !3
  %157 = load i32, ptr %11, align 4, !tbaa !3
  %158 = icmp slt i32 %156, %157
  br i1 %158, label %159, label %178

159:                                              ; preds = %155
  %160 = load ptr, ptr %5, align 8, !tbaa !10
  %161 = load i32, ptr %9, align 4, !tbaa !3
  %162 = sext i32 %161 to i64
  %163 = getelementptr inbounds i32, ptr %160, i64 %162
  %164 = load i32, ptr %163, align 4, !tbaa !3
  %165 = load ptr, ptr %5, align 8, !tbaa !10
  %166 = load i32, ptr %11, align 4, !tbaa !3
  %167 = load i32, ptr %9, align 4, !tbaa !3
  %168 = add nsw i32 %166, %167
  %169 = sext i32 %168 to i64
  %170 = getelementptr inbounds i32, ptr %165, i64 %169
  %171 = load i32, ptr %170, align 4, !tbaa !3
  %172 = icmp ne i32 %164, %171
  br i1 %172, label %173, label %174

173:                                              ; preds = %159
  store i32 1, ptr %4, align 4
  store i32 1, ptr %12, align 4
  br label %190

174:                                              ; preds = %159
  br label %175

175:                                              ; preds = %174
  %176 = load i32, ptr %9, align 4, !tbaa !3
  %177 = add nsw i32 %176, 1
  store i32 %177, ptr %9, align 4, !tbaa !3
  br label %155, !llvm.loop !43

178:                                              ; preds = %155
  %179 = load i32, ptr %11, align 4, !tbaa !3
  %180 = mul nsw i32 2, %179
  %181 = load ptr, ptr %5, align 8, !tbaa !10
  %182 = sext i32 %180 to i64
  %183 = getelementptr inbounds i32, ptr %181, i64 %182
  store ptr %183, ptr %5, align 8, !tbaa !10
  br label %184

184:                                              ; preds = %178
  %185 = load i32, ptr %11, align 4, !tbaa !3
  %186 = mul nsw i32 2, %185
  %187 = load i32, ptr %10, align 4, !tbaa !3
  %188 = add nsw i32 %187, %186
  store i32 %188, ptr %10, align 4, !tbaa !3
  br label %150, !llvm.loop !44

189:                                              ; preds = %150
  store i32 0, ptr %4, align 4
  store i32 1, ptr %12, align 4
  br label %190

190:                                              ; preds = %189, %173, %145, %140, %119, %114, %93, %88, %67, %62, %41, %36
  call void @llvm.lifetime.end.p0(i64 4, ptr %11) #5
  call void @llvm.lifetime.end.p0(i64 4, ptr %10) #5
  call void @llvm.lifetime.end.p0(i64 4, ptr %9) #5
  call void @llvm.lifetime.end.p0(i64 4, ptr %8) #5
  %191 = load i32, ptr %4, align 4
  ret i32 %191
}