; Function Attrs: nofree norecurse nosync nounwind memory(argmem: read) uwtable
define range(i32 0, 2) i32 @Extra_TruthVarInSupport(ptr noundef readonly captures(none) %0, i32 noundef %1, i32 noundef %2) local_unnamed_addr #4 {
  %4 = icmp slt i32 %1, 6
  %5 = add nsw i32 %1, -5
  %6 = shl nuw i32 1, %5
  %7 = select i1 %4, i32 1, i32 %6
  switch i32 %2, label %42 [
    i32 0, label %.preheader63
    i32 1, label %.preheader65
    i32 2, label %.preheader68
    i32 3, label %.preheader71
    i32 4, label %.preheader74
  ]

.preheader74:                                     ; preds = %3
  %8 = icmp sgt i32 %7, 0
  br i1 %8, label %.lr.ph.preheader, label %.loopexit

.lr.ph.preheader:                                 ; preds = %.preheader74
  %wide.trip.count = zext nneg i32 %7 to i64
  br label %.lr.ph

.preheader71:                                     ; preds = %3
  %9 = icmp sgt i32 %7, 0
  br i1 %9, label %.lr.ph81.preheader, label %.loopexit

.lr.ph81.preheader:                               ; preds = %.preheader71
  %wide.trip.count120 = zext nneg i32 %7 to i64
  br label %.lr.ph81

.preheader68:                                     ; preds = %3
  %10 = icmp sgt i32 %7, 0
  br i1 %10, label %.lr.ph86.preheader, label %.loopexit

.lr.ph86.preheader:                               ; preds = %.preheader68
  %wide.trip.count125 = zext nneg i32 %7 to i64
  br label %.lr.ph86

.preheader65:                                     ; preds = %3
  %11 = icmp sgt i32 %7, 0
  br i1 %11, label %.lr.ph91.preheader, label %.loopexit

.lr.ph91.preheader:                               ; preds = %.preheader65
  %wide.trip.count130 = zext nneg i32 %7 to i64
  br label %.lr.ph91

.preheader63:                                     ; preds = %3
  %12 = icmp sgt i32 %7, 0
  br i1 %12, label %.lr.ph96.preheader, label %.loopexit

.lr.ph96.preheader:                               ; preds = %.preheader63
  %wide.trip.count135 = zext nneg i32 %7 to i64
  br label %.lr.ph96

13:                                               ; preds = %.lr.ph96
  %indvars.iv.next133 = add nuw nsw i64 %indvars.iv132, 1
  %exitcond136.not = icmp eq i64 %indvars.iv.next133, %wide.trip.count135
  br i1 %exitcond136.not, label %.loopexit, label %.lr.ph96, !llvm.loop !36

.lr.ph96:                                         ; preds = %.lr.ph96.preheader, %13
  %indvars.iv132 = phi i64 [ 0, %.lr.ph96.preheader ], [ %indvars.iv.next133, %13 ]
  %14 = getelementptr inbounds nuw i32, ptr %0, i64 %indvars.iv132
  %15 = load i32, ptr %14, align 4, !tbaa !3
  %16 = lshr i32 %15, 1
  %17 = xor i32 %16, %15
  %18 = and i32 %17, 1431655765
  %.not60 = icmp eq i32 %18, 0
  br i1 %.not60, label %13, label %.loopexit

19:                                               ; preds = %.lr.ph91
  %indvars.iv.next128 = add nuw nsw i64 %indvars.iv127, 1
  %exitcond131.not = icmp eq i64 %indvars.iv.next128, %wide.trip.count130
  br i1 %exitcond131.not, label %.loopexit, label %.lr.ph91, !llvm.loop !37

.lr.ph91:                                         ; preds = %.lr.ph91.preheader, %19
  %indvars.iv127 = phi i64 [ 0, %.lr.ph91.preheader ], [ %indvars.iv.next128, %19 ]
  %20 = getelementptr inbounds nuw i32, ptr %0, i64 %indvars.iv127
  %21 = load i32, ptr %20, align 4, !tbaa !3
  %22 = lshr i32 %21, 2
  %23 = xor i32 %22, %21
  %24 = and i32 %23, 858993459
  %.not59 = icmp eq i32 %24, 0
  br i1 %.not59, label %19, label %.loopexit

25:                                               ; preds = %.lr.ph86
  %indvars.iv.next123 = add nuw nsw i64 %indvars.iv122, 1
  %exitcond126.not = icmp eq i64 %indvars.iv.next123, %wide.trip.count125
  br i1 %exitcond126.not, label %.loopexit, label %.lr.ph86, !llvm.loop !38

.lr.ph86:                                         ; preds = %.lr.ph86.preheader, %25
  %indvars.iv122 = phi i64 [ 0, %.lr.ph86.preheader ], [ %indvars.iv.next123, %25 ]
  %26 = getelementptr inbounds nuw i32, ptr %0, i64 %indvars.iv122
  %27 = load i32, ptr %26, align 4, !tbaa !3
  %28 = lshr i32 %27, 4
  %29 = xor i32 %28, %27
  %30 = and i32 %29, 252645135
  %.not58 = icmp eq i32 %30, 0
  br i1 %.not58, label %25, label %.loopexit

31:                                               ; preds = %.lr.ph81
  %indvars.iv.next118 = add nuw nsw i64 %indvars.iv117, 1
  %exitcond121.not = icmp eq i64 %indvars.iv.next118, %wide.trip.count120
  br i1 %exitcond121.not, label %.loopexit, label %.lr.ph81, !llvm.loop !39

.lr.ph81:                                         ; preds = %.lr.ph81.preheader, %31
  %indvars.iv117 = phi i64 [ 0, %.lr.ph81.preheader ], [ %indvars.iv.next118, %31 ]
  %32 = getelementptr inbounds nuw i32, ptr %0, i64 %indvars.iv117
  %33 = load i32, ptr %32, align 4, !tbaa !3
  %34 = lshr i32 %33, 8
  %35 = xor i32 %34, %33
  %36 = and i32 %35, 16711935
  %.not57 = icmp eq i32 %36, 0
  br i1 %.not57, label %31, label %.loopexit

37:                                               ; preds = %.lr.ph
  %indvars.iv.next = add nuw nsw i64 %indvars.iv, 1
  %exitcond.not = icmp eq i64 %indvars.iv.next, %wide.trip.count
  br i1 %exitcond.not, label %.loopexit, label %.lr.ph, !llvm.loop !40

.lr.ph:                                           ; preds = %.lr.ph.preheader, %37
  %indvars.iv = phi i64 [ 0, %.lr.ph.preheader ], [ %indvars.iv.next, %37 ]
  %38 = getelementptr inbounds nuw i32, ptr %0, i64 %indvars.iv
  %39 = load i32, ptr %38, align 4, !tbaa !3
  %40 = and i32 %39, 65535
  %41 = lshr i32 %39, 16
  %.not = icmp eq i32 %40, %41
  br i1 %.not, label %37, label %.loopexit

42:                                               ; preds = %3
  %43 = add nsw i32 %2, -5
  %44 = shl nuw i32 1, %43
  %45 = icmp sgt i32 %7, 0
  br i1 %45, label %.preheader.lr.ph, label %.loopexit

.preheader.lr.ph:                                 ; preds = %42
  %.not104 = icmp eq i32 %43, 31
  %46 = shl i32 2, %43
  %47 = sext i32 %46 to i64
  br i1 %.not104, label %.loopexit, label %.preheader.us.preheader

.preheader.us.preheader:                          ; preds = %.preheader.lr.ph
  %48 = sext i32 %44 to i64
  %smax = tail call i32 @llvm.smax.i32(i32 %44, i32 1)
  %wide.trip.count140 = zext nneg i32 %smax to i64
  br label %.preheader.us

.preheader.us:                                    ; preds = %.preheader.us.preheader, %._crit_edge.us
  %.052103.us = phi i32 [ %55, %._crit_edge.us ], [ 0, %.preheader.us.preheader ]
  %.054102.us = phi ptr [ %54, %._crit_edge.us ], [ %0, %.preheader.us.preheader ]
  %invariant.gep = getelementptr i32, ptr %.054102.us, i64 %48
  br label %50

49:                                               ; preds = %50
  %indvars.iv.next138 = add nuw nsw i64 %indvars.iv137, 1
  %exitcond141.not = icmp eq i64 %indvars.iv.next138, %wide.trip.count140
  br i1 %exitcond141.not, label %._crit_edge.us, label %50, !llvm.loop !41

50:                                               ; preds = %.preheader.us, %49
  %indvars.iv137 = phi i64 [ 0, %.preheader.us ], [ %indvars.iv.next138, %49 ]
  %51 = getelementptr inbounds nuw i32, ptr %.054102.us, i64 %indvars.iv137
  %52 = load i32, ptr %51, align 4, !tbaa !3
  %gep = getelementptr i32, ptr %invariant.gep, i64 %indvars.iv137
  %53 = load i32, ptr %gep, align 4, !tbaa !3
  %.not61.us = icmp eq i32 %52, %53
  br i1 %.not61.us, label %49, label %.loopexit

._crit_edge.us:                                   ; preds = %49
  %54 = getelementptr inbounds i32, ptr %.054102.us, i64 %47
  %55 = add nsw i32 %.052103.us, %46
  %56 = icmp slt i32 %55, %7
  br i1 %56, label %.preheader.us, label %.loopexit, !llvm.loop !42

.loopexit:                                        ; preds = %.lr.ph, %37, %.lr.ph81, %31, %.lr.ph86, %25, %.lr.ph91, %19, %.lr.ph96, %13, %._crit_edge.us, %50, %.preheader.lr.ph, %.preheader74, %.preheader71, %.preheader68, %.preheader65, %.preheader63, %42
  %.0 = phi i32 [ 0, %42 ], [ 0, %.preheader63 ], [ 0, %.preheader65 ], [ 0, %.preheader68 ], [ 0, %.preheader71 ], [ 0, %.preheader74 ], [ poison, %.preheader.lr.ph ], [ 1, %50 ], [ 0, %._crit_edge.us ], [ 1, %.lr.ph96 ], [ 0, %13 ], [ 1, %.lr.ph91 ], [ 0, %19 ], [ 1, %.lr.ph86 ], [ 0, %25 ], [ 1, %.lr.ph81 ], [ 0, %31 ], [ 1, %.lr.ph ], [ 0, %37 ]
  ret i32 %.0
}